target datalayout = "e-m:e-p270:32:32-p271:32:32-p272:64:64-i64:64-i128:128-f80:128-n8:16:32:64-S128"
target triple = "x86_64-pc-linux-gnu"

%"class.std::__cxx11::basic_string" = type { %"struct.std::__cxx11::basic_string<char>::_Alloc_hider", i64, %union.anon }
%"struct.std::__cxx11::basic_string<char>::_Alloc_hider" = type { ptr }
%union.anon = type { i64, [8 x i8] }
%"class.rocksdb::InternalKeyComparator" = type { %"class.rocksdb::CompareInterface", %"class.rocksdb::UserComparatorWrapper" }
%"class.rocksdb::CompareInterface" = type { ptr }
%"class.rocksdb::UserComparatorWrapper" = type { ptr }
%"class.rocksdb::CuckooTableFactory" = type { %"class.rocksdb::TableFactory", %"struct.rocksdb::CuckooTableOptions" }
%"class.rocksdb::TableFactory" = type { %"class.rocksdb::Customizable" }
%"class.rocksdb::Customizable" = type { %"class.rocksdb::Configurable" }
%"class.rocksdb::Configurable" = type { ptr, %"class.std::vector.92" }
%"class.std::vector.92" = type { %"struct.std::_Vector_base.93" }
%"struct.std::_Vector_base.93" = type { %"struct.std::_Vector_base<rocksdb::Configurable::RegisteredOptions, std::allocator<rocksdb::Configurable::RegisteredOptions>>::_Vector_impl" }
%"struct.std::_Vector_base<rocksdb::Configurable::RegisteredOptions, std::allocator<rocksdb::Configurable::RegisteredOptions>>::_Vector_impl" = type { %"struct.std::_Vector_base<rocksdb::Configurable::RegisteredOptions, std::allocator<rocksdb::Configurable::RegisteredOptions>>::_Vector_impl_data" }
%"struct.std::_Vector_base<rocksdb::Configurable::RegisteredOptions, std::allocator<rocksdb::Configurable::RegisteredOptions>>::_Vector_impl_data" = type { ptr, ptr, ptr }
%"struct.rocksdb::CuckooTableOptions" = type <{ double, i32, i32, i8, i8, [6 x i8] }>
%"struct.rocksdb::TableBuilderOptions" = type { %"struct.rocksdb::TablePropertiesCollectorFactory::Context", ptr, ptr, ptr, ptr, ptr, ptr, i8, ptr, ptr, i64, i64, i64, i64, %"class.std::__cxx11::basic_string", %"class.std::__cxx11::basic_string", i8, i32, i8, i64 }
%"struct.rocksdb::TablePropertiesCollectorFactory::Context" = type { i32, i32, i32, i64 }

; Function Attrs: mustprogress nounwind uwtable
define linkonce_odr noundef ptr @_ZNK7rocksdb21UserComparatorWrapper15user_comparatorEv(ptr noundef nonnull align 8 dereferenceable(8) %0) #3 comdat align 2 {
  %2 = alloca ptr, align 8
  store ptr %0, ptr %2, align 8, !tbaa !181
  %3 = load ptr, ptr %2, align 8
  %4 = getelementptr inbounds nuw %"class.rocksdb::UserComparatorWrapper", ptr %3, i32 0, i32 0
  %5 = load ptr, ptr %4, align 8, !tbaa !183
  ret ptr %5
}

; Function Attrs: mustprogress uwtable
define linkonce_odr noundef ptr @_ZNK7rocksdb21InternalKeyComparator15user_comparatorEv(ptr noundef nonnull align 8 dereferenceable(16) %0) #5 comdat align 2 {
  %2 = alloca ptr, align 8
  store ptr %0, ptr %2, align 8, !tbaa !69
  %3 = load ptr, ptr %2, align 8
  %4 = getelementptr inbounds nuw %"class.rocksdb::InternalKeyComparator", ptr %3, i32 0, i32 1
  %5 = call noundef ptr @_ZNK7rocksdb21UserComparatorWrapper15user_comparatorEv(ptr noundef nonnull align 8 dereferenceable(8) %4)
  ret ptr %5
}

; Function Attrs: mustprogress uwtable
define noundef ptr @_ZNK7rocksdb18CuckooTableFactory15NewTableBuilderERKNS_19TableBuilderOptionsEPNS_18WritableFileWriterE(ptr noundef nonnull align 8 dereferenceable(56) %0, ptr noundef nonnull align 8 dereferenceable(216) %1, ptr noundef %2) unnamed_addr #5 align 2 personality ptr @__gxx_personality_v0 {
  %4 = alloca ptr, align 8
  %5 = alloca ptr, align 8
  %6 = alloca ptr, align 8
  %7 = alloca ptr, align 8
  %8 = alloca i32, align 4
  store ptr %0, ptr %4, align 8, !tbaa !48
  store ptr %1, ptr %5, align 8, !tbaa !79
  store ptr %2, ptr %6, align 8, !tbaa !81
  %9 = load ptr, ptr %4, align 8
  %10 = call noalias noundef nonnull ptr @_Znwm(i64 noundef 1000) #20
  %11 = load ptr, ptr %6, align 8, !tbaa !81
  %12 = getelementptr inbounds nuw %"class.rocksdb::CuckooTableFactory", ptr %9, i32 0, i32 1
  %13 = getelementptr inbounds nuw %"struct.rocksdb::CuckooTableOptions", ptr %12, i32 0, i32 0
  %14 = load double, ptr %13, align 8, !tbaa !83
  %15 = getelementptr inbounds nuw %"class.rocksdb::CuckooTableFactory", ptr %9, i32 0, i32 1
  %16 = getelementptr inbounds nuw %"struct.rocksdb::CuckooTableOptions", ptr %15, i32 0, i32 1
  %17 = load i32, ptr %16, align 8, !tbaa !95
  %18 = load ptr, ptr %5, align 8, !tbaa !79
  %19 = getelementptr inbounds nuw %"struct.rocksdb::TableBuilderOptions", ptr %18, i32 0, i32 5
  %20 = load ptr, ptr %19, align 8, !tbaa !96
  %21 = invoke noundef ptr @_ZNK7rocksdb21InternalKeyComparator15user_comparatorEv(ptr noundef nonnull align 8 dereferenceable(16) %20)
          to label %22 unwind label %48

22:                                               ; preds = %3
  %23 = getelementptr inbounds nuw %"class.rocksdb::CuckooTableFactory", ptr %9, i32 0, i32 1
  %24 = getelementptr inbounds nuw %"struct.rocksdb::CuckooTableOptions", ptr %23, i32 0, i32 2
  %25 = load i32, ptr %24, align 4, !tbaa !105
  %26 = getelementptr inbounds nuw %"class.rocksdb::CuckooTableFactory", ptr %9, i32 0, i32 1
  %27 = getelementptr inbounds nuw %"struct.rocksdb::CuckooTableOptions", ptr %26, i32 0, i32 4
  %28 = load i8, ptr %27, align 1, !tbaa !106, !range !107, !noundef !108
  %29 = trunc i8 %28 to i1
  %30 = getelementptr inbounds nuw %"class.rocksdb::CuckooTableFactory", ptr %9, i32 0, i32 1
  %31 = getelementptr inbounds nuw %"struct.rocksdb::CuckooTableOptions", ptr %30, i32 0, i32 3
  %32 = load i8, ptr %31, align 8, !tbaa !109, !range !107, !noundef !108
  %33 = trunc i8 %32 to i1
  %34 = load ptr, ptr %5, align 8, !tbaa !79
  %35 = getelementptr inbounds nuw %"struct.rocksdb::TablePropertiesCollectorFactory::Context", ptr %34, i32 0, i32 0
  %36 = load i32, ptr %35, align 8, !tbaa !110
  %37 = load ptr, ptr %5, align 8, !tbaa !79
  %38 = getelementptr inbounds nuw %"struct.rocksdb::TableBuilderOptions", ptr %37, i32 0, i32 9
  %39 = load ptr, ptr %38, align 8, !tbaa !111
  %40 = load ptr, ptr %5, align 8, !tbaa !79
  %41 = getelementptr inbounds nuw %"struct.rocksdb::TableBuilderOptions", ptr %40, i32 0, i32 14
  %42 = load ptr, ptr %5, align 8, !tbaa !79
  %43 = getelementptr inbounds nuw %"struct.rocksdb::TableBuilderOptions", ptr %42, i32 0, i32 15
  %44 = load ptr, ptr %5, align 8, !tbaa !79
  %45 = getelementptr inbounds nuw %"struct.rocksdb::TableBuilderOptions", ptr %44, i32 0, i32 19
  %46 = load i64, ptr %45, align 8, !tbaa !112
  invoke void @_ZN7rocksdb18CuckooTableBuilderC1EPNS_18WritableFileWriterEdjjPKNS_10ComparatorEjbbPFmRKNS_5SliceEjmEjRKNSt7__cxx1112basic_stringIcSt11char_traitsIcESaIcEEESI_SI_m(ptr noundef nonnull align 8 dereferenceable(993) %10, ptr noundef %11, double noundef %14, i32 noundef 64, i32 noundef %17, ptr noundef %21, i32 noundef %25, i1 noundef zeroext %29, i1 noundef zeroext %33, ptr noundef null, i32 noundef %36, ptr noundef nonnull align 8 dereferenceable(32) %39, ptr noundef nonnull align 8 dereferenceable(32) %41, ptr noundef nonnull align 8 dereferenceable(32) %43, i64 noundef %46)
          to label %47 unwind label %48

47:                                               ; preds = %22
  ret ptr %10

48:                                               ; preds = %22, %3
  %49 = landingpad { ptr, i32 }
          cleanup
  %50 = extractvalue { ptr, i32 } %49, 0
  store ptr %50, ptr %7, align 8
  %51 = extractvalue { ptr, i32 } %49, 1
  store i32 %51, ptr %8, align 4
  call void @_ZdlPvm(ptr noundef %10, i64 noundef 1000) #21
  br label %52

52:                                               ; preds = %48
  %53 = load ptr, ptr %7, align 8
  %54 = load i32, ptr %8, align 4
  %55 = insertvalue { ptr, i32 } poison, ptr %53, 0
  %56 = insertvalue { ptr, i32 } %55, i32 %54, 1
  resume { ptr, i32 } %56
}