; Function Attrs: mustprogress uwtable
define noundef nonnull ptr @_ZNK7rocksdb18CuckooTableFactory15NewTableBuilderERKNS_19TableBuilderOptionsEPNS_18WritableFileWriterE(ptr noundef nonnull readonly align 8 captures(none) dereferenceable(56) %0, ptr noundef nonnull align 8 dereferenceable(216) %1, ptr noundef %2) unnamed_addr #4 align 2 personality ptr @__gxx_personality_v0 {
  %4 = tail call noalias noundef nonnull dereferenceable(1000) ptr @_Znwm(i64 noundef 1000) #23
  %5 = getelementptr inbounds nuw i8, ptr %0, i64 32
  %6 = load double, ptr %5, align 8, !tbaa !58
  %7 = getelementptr inbounds nuw i8, ptr %0, i64 40
  %8 = load i32, ptr %7, align 8, !tbaa !70
  %9 = getelementptr inbounds nuw i8, ptr %1, i64 56
  %10 = load ptr, ptr %9, align 8, !tbaa !71
  %11 = getelementptr inbounds nuw i8, ptr %10, i64 8
  %12 = load ptr, ptr %11, align 8, !tbaa !29
  %13 = getelementptr inbounds nuw i8, ptr %0, i64 44
  %14 = load i32, ptr %13, align 4, !tbaa !82
  %15 = getelementptr inbounds nuw i8, ptr %0, i64 49
  %16 = load i8, ptr %15, align 1, !tbaa !83, !range !49, !noundef !50
  %17 = trunc nuw i8 %16 to i1
  %18 = getelementptr inbounds nuw i8, ptr %0, i64 48
  %19 = load i8, ptr %18, align 8, !tbaa !84, !range !49, !noundef !50
  %20 = trunc nuw i8 %19 to i1
  %21 = load i32, ptr %1, align 8, !tbaa !85
  %22 = getelementptr inbounds nuw i8, ptr %1, i64 88
  %23 = load ptr, ptr %22, align 8, !tbaa !86
  %24 = getelementptr inbounds nuw i8, ptr %1, i64 128
  %25 = getelementptr inbounds nuw i8, ptr %1, i64 160
  %26 = getelementptr inbounds nuw i8, ptr %1, i64 208
  %27 = load i64, ptr %26, align 8, !tbaa !87
  invoke void @_ZN7rocksdb18CuckooTableBuilderC1EPNS_18WritableFileWriterEdjjPKNS_10ComparatorEjbbPFmRKNS_5SliceEjmEjRKNSt7__cxx1112basic_stringIcSt11char_traitsIcESaIcEEESI_SI_m(ptr noundef nonnull align 8 dereferenceable(993) %4, ptr noundef %2, double noundef %6, i32 noundef 64, i32 noundef %8, ptr noundef %12, i32 noundef %14, i1 noundef zeroext %17, i1 noundef zeroext %20, ptr noundef null, i32 noundef %21, ptr noundef nonnull align 8 dereferenceable(32) %23, ptr noundef nonnull align 8 dereferenceable(32) %24, ptr noundef nonnull align 8 dereferenceable(32) %25, i64 noundef %27)
          to label %28 unwind label %29

28:                                               ; preds = %3
  ret ptr %4

29:                                               ; preds = %3
  %30 = landingpad { ptr, i32 }
          cleanup
  tail call void @_ZdlPvm(ptr noundef nonnull %4, i64 noundef 1000) #22
  resume { ptr, i32 } %30
}